; Function Attrs: mustprogress nofree norecurse nosync nounwind sspstrong willreturn memory(read, inaccessiblemem: none) uwtable
define dso_local i32 @rb_iseq_node_id(ptr noundef readonly captures(none) %0, i64 noundef %1) local_unnamed_addr #8 {
  %3 = getelementptr i8, ptr %0, i64 16
  %.val = load ptr, ptr %3, align 8, !tbaa !7
  %4 = getelementptr inbounds nuw i8, ptr %.val, i64 112
  %5 = getelementptr inbounds nuw i8, ptr %.val, i64 128
  %6 = load i32, ptr %5, align 8, !tbaa !141
  %7 = load ptr, ptr %4, align 8, !tbaa !77
  switch i32 %6, label %8 [
    i32 0, label %get_insn_info.exit.thread
    i32 1, label %get_insn_info.exit
  ]

8:                                                ; preds = %2
  %9 = getelementptr inbounds nuw i8, ptr %.val, i64 136
  %10 = load ptr, ptr %9, align 8, !tbaa !79
  %11 = trunc i64 %1 to i32
  %12 = icmp slt i32 %11, 54
  br i1 %12, label %13, label %24

13:                                               ; preds = %8
  %14 = sdiv i32 %11, 9
  %15 = srem i32 %11, 9
  %16 = sext i32 %14 to i64
  %17 = getelementptr [6 x i64], ptr %10, i64 0, i64 %16
  %18 = load i64, ptr %17, align 8, !tbaa !42
  %19 = mul nsw i32 %15, 7
  %20 = zext nneg i32 %19 to i64
  %21 = lshr i64 %18, %20
  %22 = trunc i64 %21 to i32
  %23 = and i32 %22, 127
  br label %succ_index_lookup.exit.i.i

24:                                               ; preds = %8
  %25 = add nsw i32 %11, -54
  %26 = lshr i32 %25, 9
  %27 = getelementptr inbounds nuw i8, ptr %10, i64 48
  %28 = zext nneg i32 %26 to i64
  %29 = getelementptr [0 x %struct.succ_dict_block], ptr %27, i64 0, i64 %28
  %30 = and i32 %25, 511
  %31 = lshr i32 %30, 6
  %32 = icmp samesign ult i32 %30, 64
  br i1 %32, label %42, label %33

33:                                               ; preds = %24
  %34 = getelementptr inbounds nuw i8, ptr %29, i64 8
  %35 = load i64, ptr %34, align 8, !tbaa !151
  %36 = mul nuw nsw i32 %31, 9
  %37 = add nsw i32 %36, -9
  %38 = zext nneg i32 %37 to i64
  %39 = lshr i64 %35, %38
  %40 = trunc i64 %39 to i32
  %41 = and i32 %40, 511
  br label %42

42:                                               ; preds = %33, %24
  %43 = phi i32 [ %41, %33 ], [ 0, %24 ]
  %44 = getelementptr inbounds nuw i8, ptr %29, i64 16
  %45 = zext nneg i32 %31 to i64
  %46 = getelementptr [8 x i64], ptr %44, i64 0, i64 %45
  %47 = load i64, ptr %46, align 8, !tbaa !42
  %48 = and i32 %25, 63
  %49 = xor i32 %48, 63
  %50 = zext nneg i32 %49 to i64
  %51 = shl i64 %47, %50
  %52 = tail call range(i64 0, 65) i64 @llvm.ctpop.i64(i64 %51)
  %53 = trunc nuw nsw i64 %52 to i32
  %54 = load i32, ptr %29, align 8, !tbaa !149
  %55 = add i32 %54, %43
  %56 = add i32 %55, %53
  br label %succ_index_lookup.exit.i.i

succ_index_lookup.exit.i.i:                       ; preds = %42, %13
  %.0.i.i.i = phi i32 [ %23, %13 ], [ %56, %42 ]
  %57 = add i32 %.0.i.i.i, -1
  %58 = sext i32 %57 to i64
  %59 = getelementptr %struct.iseq_insn_info_entry, ptr %7, i64 %58
  br label %get_insn_info.exit

get_insn_info.exit:                               ; preds = %2, %succ_index_lookup.exit.i.i
  %.0.i.i = phi ptr [ %59, %succ_index_lookup.exit.i.i ], [ %7, %2 ]
  %.not = icmp eq ptr %.0.i.i, null
  br i1 %.not, label %get_insn_info.exit.thread, label %60

60:                                               ; preds = %get_insn_info.exit
  %61 = getelementptr inbounds nuw i8, ptr %.0.i.i, i64 4
  %62 = load i32, ptr %61, align 4, !tbaa !259
  br label %get_insn_info.exit.thread

get_insn_info.exit.thread:                        ; preds = %2, %get_insn_info.exit, %60
  %.0 = phi i32 [ %62, %60 ], [ 0, %get_insn_info.exit ], [ %6, %2 ]
  ret i32 %.0
}